target datalayout = "e-m:e-p270:32:32-p271:32:32-p272:64:64-i64:64-i128:128-f80:128-n8:16:32:64-S128"
target triple = "x86_64-pc-linux-gnu"

@.str.21 = private unnamed_addr constant [35 x i8] c"invalid order function for sorting\00", align 1

; Function Attrs: nounwind uwtable
define internal i32 @partition(ptr noundef %0, i32 noundef %1, i32 noundef %2) #0 {
  %4 = alloca ptr, align 8
  %5 = alloca i32, align 4
  %6 = alloca i32, align 4
  %7 = alloca i32, align 4
  %8 = alloca i32, align 4
  store ptr %0, ptr %4, align 8, !tbaa !4
  store i32 %1, ptr %5, align 4, !tbaa !15
  store i32 %2, ptr %6, align 4, !tbaa !15
  call void @llvm.lifetime.start.p0(i64 4, ptr %7) #4
  %9 = load i32, ptr %5, align 4, !tbaa !15
  store i32 %9, ptr %7, align 4, !tbaa !15
  call void @llvm.lifetime.start.p0(i64 4, ptr %8) #4
  %10 = load i32, ptr %6, align 4, !tbaa !15
  %11 = sub i32 %10, 1
  store i32 %11, ptr %8, align 4, !tbaa !15
  br label %12

12:                                               ; preds = %74, %3
  br label %13

13:                                               ; preds = %36, %12
  %14 = load ptr, ptr %4, align 8, !tbaa !4
  %15 = load i32, ptr %7, align 4, !tbaa !15
  %16 = add i32 %15, 1
  store i32 %16, ptr %7, align 4, !tbaa !15
  %17 = zext i32 %16 to i64
  %18 = call i32 @lua_geti(ptr noundef %14, i32 noundef 1, i64 noundef %17)
  %19 = load ptr, ptr %4, align 8, !tbaa !4
  %20 = call i32 @sort_comp(ptr noundef %19, i32 noundef -1, i32 noundef -2)
  %21 = icmp ne i32 %20, 0
  br i1 %21, label %22, label %38

22:                                               ; preds = %13
  %23 = load i32, ptr %7, align 4, !tbaa !15
  %24 = load i32, ptr %6, align 4, !tbaa !15
  %25 = sub i32 %24, 1
  %26 = icmp eq i32 %23, %25
  %27 = zext i1 %26 to i32
  %28 = icmp ne i32 %27, 0
  %29 = zext i1 %28 to i32
  %30 = sext i32 %29 to i64
  %31 = call i64 @llvm.expect.i64(i64 %30, i64 0)
  %32 = icmp ne i64 %31, 0
  br i1 %32, label %33, label %36

33:                                               ; preds = %22
  %34 = load ptr, ptr %4, align 8, !tbaa !4
  %35 = call i32 (ptr, ptr, ...) @luaL_error(ptr noundef %34, ptr noundef @.str.21)
  br label %36

36:                                               ; preds = %33, %22
  %37 = load ptr, ptr %4, align 8, !tbaa !4
  call void @lua_settop(ptr noundef %37, i32 noundef -2)
  br label %13

38:                                               ; preds = %13
  br label %39

39:                                               ; preds = %61, %38
  %40 = load ptr, ptr %4, align 8, !tbaa !4
  %41 = load i32, ptr %8, align 4, !tbaa !15
  %42 = add i32 %41, -1
  store i32 %42, ptr %8, align 4, !tbaa !15
  %43 = zext i32 %42 to i64
  %44 = call i32 @lua_geti(ptr noundef %40, i32 noundef 1, i64 noundef %43)
  %45 = load ptr, ptr %4, align 8, !tbaa !4
  %46 = call i32 @sort_comp(ptr noundef %45, i32 noundef -3, i32 noundef -1)
  %47 = icmp ne i32 %46, 0
  br i1 %47, label %48, label %63

48:                                               ; preds = %39
  %49 = load i32, ptr %8, align 4, !tbaa !15
  %50 = load i32, ptr %7, align 4, !tbaa !15
  %51 = icmp ult i32 %49, %50
  %52 = zext i1 %51 to i32
  %53 = icmp ne i32 %52, 0
  %54 = zext i1 %53 to i32
  %55 = sext i32 %54 to i64
  %56 = call i64 @llvm.expect.i64(i64 %55, i64 0)
  %57 = icmp ne i64 %56, 0
  br i1 %57, label %58, label %61

58:                                               ; preds = %48
  %59 = load ptr, ptr %4, align 8, !tbaa !4
  %60 = call i32 (ptr, ptr, ...) @luaL_error(ptr noundef %59, ptr noundef @.str.21)
  br label %61

61:                                               ; preds = %58, %48
  %62 = load ptr, ptr %4, align 8, !tbaa !4
  call void @lua_settop(ptr noundef %62, i32 noundef -2)
  br label %39

63:                                               ; preds = %39
  %64 = load i32, ptr %8, align 4, !tbaa !15
  %65 = load i32, ptr %7, align 4, !tbaa !15
  %66 = icmp ult i32 %64, %65
  br i1 %66, label %67, label %74

67:                                               ; preds = %63
  %68 = load ptr, ptr %4, align 8, !tbaa !4
  call void @lua_settop(ptr noundef %68, i32 noundef -2)
  %69 = load ptr, ptr %4, align 8, !tbaa !4
  %70 = load i32, ptr %6, align 4, !tbaa !15
  %71 = sub i32 %70, 1
  %72 = load i32, ptr %7, align 4, !tbaa !15
  call void @set2(ptr noundef %69, i32 noundef %71, i32 noundef %72)
  %73 = load i32, ptr %7, align 4, !tbaa !15
  call void @llvm.lifetime.end.p0(i64 4, ptr %8) #4
  call void @llvm.lifetime.end.p0(i64 4, ptr %7) #4
  ret i32 %73

74:                                               ; preds = %63
  %75 = load ptr, ptr %4, align 8, !tbaa !4
  %76 = load i32, ptr %7, align 4, !tbaa !15
  %77 = load i32, ptr %8, align 4, !tbaa !15
  call void @set2(ptr noundef %75, i32 noundef %76, i32 noundef %77)
  br label %12
}

; Function Attrs: nounwind uwtable
define internal i32 @choosePivot(i32 noundef %0, i32 noundef %1, i32 noundef %2) #0 {
  %4 = alloca i32, align 4
  %5 = alloca i32, align 4
  %6 = alloca i32, align 4
  %7 = alloca i32, align 4
  %8 = alloca i32, align 4
  store i32 %0, ptr %4, align 4, !tbaa !15
  store i32 %1, ptr %5, align 4, !tbaa !15
  store i32 %2, ptr %6, align 4, !tbaa !15
  call void @llvm.lifetime.start.p0(i64 4, ptr %7) #4
  %9 = load i32, ptr %5, align 4, !tbaa !15
  %10 = load i32, ptr %4, align 4, !tbaa !15
  %11 = sub i32 %9, %10
  %12 = udiv i32 %11, 4
  store i32 %12, ptr %7, align 4, !tbaa !15
  call void @llvm.lifetime.start.p0(i64 4, ptr %8) #4
  %13 = load i32, ptr %6, align 4, !tbaa !15
  %14 = load i32, ptr %4, align 4, !tbaa !15
  %15 = xor i32 %13, %14
  %16 = load i32, ptr %5, align 4, !tbaa !15
  %17 = xor i32 %15, %16
  %18 = load i32, ptr %7, align 4, !tbaa !15
  %19 = mul i32 %18, 2
  %20 = urem i32 %17, %19
  %21 = load i32, ptr %4, align 4, !tbaa !15
  %22 = load i32, ptr %7, align 4, !tbaa !15
  %23 = add i32 %21, %22
  %24 = add i32 %20, %23
  store i32 %24, ptr %8, align 4, !tbaa !15
  %25 = load i32, ptr %8, align 4, !tbaa !15
  call void @llvm.lifetime.end.p0(i64 4, ptr %8) #4
  call void @llvm.lifetime.end.p0(i64 4, ptr %7) #4
  ret i32 %25
}

; Function Attrs: nounwind uwtable
define internal void @set2(ptr noundef %0, i32 noundef %1, i32 noundef %2) #0 {
  %4 = alloca ptr, align 8
  %5 = alloca i32, align 4
  %6 = alloca i32, align 4
  store ptr %0, ptr %4, align 8, !tbaa !4
  store i32 %1, ptr %5, align 4, !tbaa !15
  store i32 %2, ptr %6, align 4, !tbaa !15
  %7 = load ptr, ptr %4, align 8, !tbaa !4
  %8 = load i32, ptr %5, align 4, !tbaa !15
  %9 = zext i32 %8 to i64
  call void @lua_seti(ptr noundef %7, i32 noundef 1, i64 noundef %9)
  %10 = load ptr, ptr %4, align 8, !tbaa !4
  %11 = load i32, ptr %6, align 4, !tbaa !15
  %12 = zext i32 %11 to i64
  call void @lua_seti(ptr noundef %10, i32 noundef 1, i64 noundef %12)
  ret void
}

; Function Attrs: nounwind uwtable
define internal void @auxsort(ptr noundef %0, i32 noundef %1, i32 noundef %2, i32 noundef %3) #0 {
  %5 = alloca ptr, align 8
  %6 = alloca i32, align 4
  %7 = alloca i32, align 4
  %8 = alloca i32, align 4
  %9 = alloca i32, align 4
  %10 = alloca i32, align 4
  %11 = alloca i32, align 4
  store ptr %0, ptr %5, align 8, !tbaa !4
  store i32 %1, ptr %6, align 4, !tbaa !15
  store i32 %2, ptr %7, align 4, !tbaa !15
  store i32 %3, ptr %8, align 4, !tbaa !15
  br label %12

12:                                               ; preds = %157, %4
  %13 = load i32, ptr %6, align 4, !tbaa !15
  %14 = load i32, ptr %7, align 4, !tbaa !15
  %15 = icmp ult i32 %13, %14
  br i1 %15, label %16, label %158

16:                                               ; preds = %12
  call void @llvm.lifetime.start.p0(i64 4, ptr %9) #4
  call void @llvm.lifetime.start.p0(i64 4, ptr %10) #4
  %17 = load ptr, ptr %5, align 8, !tbaa !4
  %18 = load i32, ptr %6, align 4, !tbaa !15
  %19 = zext i32 %18 to i64
  %20 = call i32 @lua_geti(ptr noundef %17, i32 noundef 1, i64 noundef %19)
  %21 = load ptr, ptr %5, align 8, !tbaa !4
  %22 = load i32, ptr %7, align 4, !tbaa !15
  %23 = zext i32 %22 to i64
  %24 = call i32 @lua_geti(ptr noundef %21, i32 noundef 1, i64 noundef %23)
  %25 = load ptr, ptr %5, align 8, !tbaa !4
  %26 = call i32 @sort_comp(ptr noundef %25, i32 noundef -1, i32 noundef -2)
  %27 = icmp ne i32 %26, 0
  br i1 %27, label %28, label %32

28:                                               ; preds = %16
  %29 = load ptr, ptr %5, align 8, !tbaa !4
  %30 = load i32, ptr %6, align 4, !tbaa !15
  %31 = load i32, ptr %7, align 4, !tbaa !15
  call void @set2(ptr noundef %29, i32 noundef %30, i32 noundef %31)
  br label %34

32:                                               ; preds = %16
  %33 = load ptr, ptr %5, align 8, !tbaa !4
  call void @lua_settop(ptr noundef %33, i32 noundef -3)
  br label %34

34:                                               ; preds = %32, %28
  %35 = load i32, ptr %7, align 4, !tbaa !15
  %36 = load i32, ptr %6, align 4, !tbaa !15
  %37 = sub i32 %35, %36
  %38 = icmp eq i32 %37, 1
  br i1 %38, label %39, label %40

39:                                               ; preds = %34
  store i32 1, ptr %11, align 4
  br label %155

40:                                               ; preds = %34
  %41 = load i32, ptr %7, align 4, !tbaa !15
  %42 = load i32, ptr %6, align 4, !tbaa !15
  %43 = sub i32 %41, %42
  %44 = icmp ult i32 %43, 100
  br i1 %44, label %48, label %45

45:                                               ; preds = %40
  %46 = load i32, ptr %8, align 4, !tbaa !15
  %47 = icmp eq i32 %46, 0
  br i1 %47, label %48, label %53

48:                                               ; preds = %45, %40
  %49 = load i32, ptr %6, align 4, !tbaa !15
  %50 = load i32, ptr %7, align 4, !tbaa !15
  %51 = add i32 %49, %50
  %52 = udiv i32 %51, 2
  store i32 %52, ptr %9, align 4, !tbaa !15
  br label %58

53:                                               ; preds = %45
  %54 = load i32, ptr %6, align 4, !tbaa !15
  %55 = load i32, ptr %7, align 4, !tbaa !15
  %56 = load i32, ptr %8, align 4, !tbaa !15
  %57 = call i32 @choosePivot(i32 noundef %54, i32 noundef %55, i32 noundef %56)
  store i32 %57, ptr %9, align 4, !tbaa !15
  br label %58

58:                                               ; preds = %53, %48
  %59 = load ptr, ptr %5, align 8, !tbaa !4
  %60 = load i32, ptr %9, align 4, !tbaa !15
  %61 = zext i32 %60 to i64
  %62 = call i32 @lua_geti(ptr noundef %59, i32 noundef 1, i64 noundef %61)
  %63 = load ptr, ptr %5, align 8, !tbaa !4
  %64 = load i32, ptr %6, align 4, !tbaa !15
  %65 = zext i32 %64 to i64
  %66 = call i32 @lua_geti(ptr noundef %63, i32 noundef 1, i64 noundef %65)
  %67 = load ptr, ptr %5, align 8, !tbaa !4
  %68 = call i32 @sort_comp(ptr noundef %67, i32 noundef -2, i32 noundef -1)
  %69 = icmp ne i32 %68, 0
  br i1 %69, label %70, label %74

70:                                               ; preds = %58
  %71 = load ptr, ptr %5, align 8, !tbaa !4
  %72 = load i32, ptr %9, align 4, !tbaa !15
  %73 = load i32, ptr %6, align 4, !tbaa !15
  call void @set2(ptr noundef %71, i32 noundef %72, i32 noundef %73)
  br label %90

74:                                               ; preds = %58
  %75 = load ptr, ptr %5, align 8, !tbaa !4
  call void @lua_settop(ptr noundef %75, i32 noundef -2)
  %76 = load ptr, ptr %5, align 8, !tbaa !4
  %77 = load i32, ptr %7, align 4, !tbaa !15
  %78 = zext i32 %77 to i64
  %79 = call i32 @lua_geti(ptr noundef %76, i32 noundef 1, i64 noundef %78)
  %80 = load ptr, ptr %5, align 8, !tbaa !4
  %81 = call i32 @sort_comp(ptr noundef %80, i32 noundef -1, i32 noundef -2)
  %82 = icmp ne i32 %81, 0
  br i1 %82, label %83, label %87

83:                                               ; preds = %74
  %84 = load ptr, ptr %5, align 8, !tbaa !4
  %85 = load i32, ptr %9, align 4, !tbaa !15
  %86 = load i32, ptr %7, align 4, !tbaa !15
  call void @set2(ptr noundef %84, i32 noundef %85, i32 noundef %86)
  br label %89

87:                                               ; preds = %74
  %88 = load ptr, ptr %5, align 8, !tbaa !4
  call void @lua_settop(ptr noundef %88, i32 noundef -3)
  br label %89

89:                                               ; preds = %87, %83
  br label %90

90:                                               ; preds = %89, %70
  %91 = load i32, ptr %7, align 4, !tbaa !15
  %92 = load i32, ptr %6, align 4, !tbaa !15
  %93 = sub i32 %91, %92
  %94 = icmp eq i32 %93, 2
  br i1 %94, label %95, label %96

95:                                               ; preds = %90
  store i32 1, ptr %11, align 4
  br label %155

96:                                               ; preds = %90
  %97 = load ptr, ptr %5, align 8, !tbaa !4
  %98 = load i32, ptr %9, align 4, !tbaa !15
  %99 = zext i32 %98 to i64
  %100 = call i32 @lua_geti(ptr noundef %97, i32 noundef 1, i64 noundef %99)
  %101 = load ptr, ptr %5, align 8, !tbaa !4
  call void @lua_pushvalue(ptr noundef %101, i32 noundef -1)
  %102 = load ptr, ptr %5, align 8, !tbaa !4
  %103 = load i32, ptr %7, align 4, !tbaa !15
  %104 = sub i32 %103, 1
  %105 = zext i32 %104 to i64
  %106 = call i32 @lua_geti(ptr noundef %102, i32 noundef 1, i64 noundef %105)
  %107 = load ptr, ptr %5, align 8, !tbaa !4
  %108 = load i32, ptr %9, align 4, !tbaa !15
  %109 = load i32, ptr %7, align 4, !tbaa !15
  %110 = sub i32 %109, 1
  call void @set2(ptr noundef %107, i32 noundef %108, i32 noundef %110)
  %111 = load ptr, ptr %5, align 8, !tbaa !4
  %112 = load i32, ptr %6, align 4, !tbaa !15
  %113 = load i32, ptr %7, align 4, !tbaa !15
  %114 = call i32 @partition(ptr noundef %111, i32 noundef %112, i32 noundef %113)
  store i32 %114, ptr %9, align 4, !tbaa !15
  %115 = load i32, ptr %9, align 4, !tbaa !15
  %116 = load i32, ptr %6, align 4, !tbaa !15
  %117 = sub i32 %115, %116
  %118 = load i32, ptr %7, align 4, !tbaa !15
  %119 = load i32, ptr %9, align 4, !tbaa !15
  %120 = sub i32 %118, %119
  %121 = icmp ult i32 %117, %120
  br i1 %121, label %122, label %133

122:                                              ; preds = %96
  %123 = load ptr, ptr %5, align 8, !tbaa !4
  %124 = load i32, ptr %6, align 4, !tbaa !15
  %125 = load i32, ptr %9, align 4, !tbaa !15
  %126 = sub i32 %125, 1
  %127 = load i32, ptr %8, align 4, !tbaa !15
  call void @auxsort(ptr noundef %123, i32 noundef %124, i32 noundef %126, i32 noundef %127)
  %128 = load i32, ptr %9, align 4, !tbaa !15
  %129 = load i32, ptr %6, align 4, !tbaa !15
  %130 = sub i32 %128, %129
  store i32 %130, ptr %10, align 4, !tbaa !15
  %131 = load i32, ptr %9, align 4, !tbaa !15
  %132 = add i32 %131, 1
  store i32 %132, ptr %6, align 4, !tbaa !15
  br label %144

133:                                              ; preds = %96
  %134 = load ptr, ptr %5, align 8, !tbaa !4
  %135 = load i32, ptr %9, align 4, !tbaa !15
  %136 = add i32 %135, 1
  %137 = load i32, ptr %7, align 4, !tbaa !15
  %138 = load i32, ptr %8, align 4, !tbaa !15
  call void @auxsort(ptr noundef %134, i32 noundef %136, i32 noundef %137, i32 noundef %138)
  %139 = load i32, ptr %7, align 4, !tbaa !15
  %140 = load i32, ptr %9, align 4, !tbaa !15
  %141 = sub i32 %139, %140
  store i32 %141, ptr %10, align 4, !tbaa !15
  %142 = load i32, ptr %9, align 4, !tbaa !15
  %143 = sub i32 %142, 1
  store i32 %143, ptr %7, align 4, !tbaa !15
  br label %144

144:                                              ; preds = %133, %122
  %145 = load i32, ptr %7, align 4, !tbaa !15
  %146 = load i32, ptr %6, align 4, !tbaa !15
  %147 = sub i32 %145, %146
  %148 = udiv i32 %147, 128
  %149 = load i32, ptr %10, align 4, !tbaa !15
  %150 = icmp ugt i32 %148, %149
  br i1 %150, label %151, label %154

151:                                              ; preds = %144
  %152 = load ptr, ptr %5, align 8, !tbaa !4
  %153 = call i32 @luaL_makeseed(ptr noundef %152)
  store i32 %153, ptr %8, align 4, !tbaa !15
  br label %154

154:                                              ; preds = %151, %144
  store i32 0, ptr %11, align 4
  br label %155

155:                                              ; preds = %154, %95, %39
  call void @llvm.lifetime.end.p0(i64 4, ptr %10) #4
  call void @llvm.lifetime.end.p0(i64 4, ptr %9) #4
  %156 = load i32, ptr %11, align 4
  switch i32 %156, label %159 [
    i32 0, label %157
    i32 1, label %158
  ]

157:                                              ; preds = %155
  br label %12

158:                                              ; preds = %155, %12
  ret void

159:                                              ; preds = %155
  unreachable
}