; Function Attrs: nounwind uwtable
define internal fastcc void @auxsort(ptr noundef %0, i32 noundef %1, i32 noundef %2, i32 noundef %3) unnamed_addr #0 {
  %5 = icmp ult i32 %1, %2
  br i1 %5, label %.lr.ph, label %.thread

.lr.ph:                                           ; preds = %4, %92
  %.07597 = phi i32 [ %.1, %92 ], [ %3, %4 ]
  %.07696 = phi i32 [ %.278, %92 ], [ %2, %4 ]
  %.07995 = phi i32 [ %.281, %92 ], [ %1, %4 ]
  %6 = zext i32 %.07995 to i64
  %7 = tail call i32 @lua_geti(ptr noundef %0, i32 noundef 1, i64 noundef %6) #3
  %8 = zext i32 %.07696 to i64
  %9 = tail call i32 @lua_geti(ptr noundef %0, i32 noundef 1, i64 noundef %8) #3
  %10 = tail call fastcc i32 @sort_comp(ptr noundef %0, i32 noundef -1, i32 noundef -2)
  %.not = icmp eq i32 %10, 0
  br i1 %.not, label %12, label %11

11:                                               ; preds = %.lr.ph
  tail call void @lua_seti(ptr noundef %0, i32 noundef 1, i64 noundef %6) #3
  tail call void @lua_seti(ptr noundef %0, i32 noundef 1, i64 noundef %8) #3
  br label %13

12:                                               ; preds = %.lr.ph
  tail call void @lua_settop(ptr noundef %0, i32 noundef -3) #3
  br label %13

13:                                               ; preds = %12, %11
  %14 = sub i32 %.07696, %.07995
  %15 = icmp eq i32 %14, 1
  br i1 %15, label %.thread, label %16

16:                                               ; preds = %13
  %17 = icmp ult i32 %14, 100
  %18 = icmp eq i32 %.07597, 0
  %or.cond = select i1 %17, i1 true, i1 %18
  br i1 %or.cond, label %19, label %22

19:                                               ; preds = %16
  %20 = add i32 %.07696, %.07995
  %21 = lshr i32 %20, 1
  br label %30

22:                                               ; preds = %16
  %23 = lshr i32 %14, 2
  %24 = xor i32 %.07696, %.07995
  %25 = xor i32 %24, %.07597
  %26 = shl nuw nsw i32 %23, 1
  %27 = urem i32 %25, %26
  %28 = add i32 %23, %.07995
  %29 = add i32 %28, %27
  br label %30

30:                                               ; preds = %22, %19
  %.074 = phi i32 [ %21, %19 ], [ %29, %22 ]
  %31 = zext i32 %.074 to i64
  %32 = tail call i32 @lua_geti(ptr noundef %0, i32 noundef 1, i64 noundef %31) #3
  %33 = tail call i32 @lua_geti(ptr noundef %0, i32 noundef 1, i64 noundef %6) #3
  %34 = tail call fastcc i32 @sort_comp(ptr noundef %0, i32 noundef -2, i32 noundef -1)
  %.not85 = icmp eq i32 %34, 0
  br i1 %.not85, label %36, label %35

35:                                               ; preds = %30
  tail call void @lua_seti(ptr noundef %0, i32 noundef 1, i64 noundef %31) #3
  tail call void @lua_seti(ptr noundef %0, i32 noundef 1, i64 noundef %6) #3
  br label %41

36:                                               ; preds = %30
  tail call void @lua_settop(ptr noundef %0, i32 noundef -2) #3
  %37 = tail call i32 @lua_geti(ptr noundef %0, i32 noundef 1, i64 noundef %8) #3
  %38 = tail call fastcc i32 @sort_comp(ptr noundef %0, i32 noundef -1, i32 noundef -2)
  %.not86 = icmp eq i32 %38, 0
  br i1 %.not86, label %40, label %39

39:                                               ; preds = %36
  tail call void @lua_seti(ptr noundef %0, i32 noundef 1, i64 noundef %31) #3
  tail call void @lua_seti(ptr noundef %0, i32 noundef 1, i64 noundef %8) #3
  br label %41

40:                                               ; preds = %36
  tail call void @lua_settop(ptr noundef %0, i32 noundef -3) #3
  br label %41

41:                                               ; preds = %39, %40, %35
  %42 = icmp eq i32 %14, 2
  br i1 %42, label %.thread, label %43

43:                                               ; preds = %41
  %44 = tail call i32 @lua_geti(ptr noundef %0, i32 noundef 1, i64 noundef %31) #3
  tail call void @lua_pushvalue(ptr noundef %0, i32 noundef -1) #3
  %45 = add i32 %.07696, -1
  %46 = zext i32 %45 to i64
  %47 = tail call i32 @lua_geti(ptr noundef %0, i32 noundef 1, i64 noundef %46) #3
  br label %48

48:                                               ; preds = %78, %43
  %.lcssa.sink = phi i64 [ %31, %43 ], [ %51, %78 ]
  %.lcssa104.sink = phi i64 [ %46, %43 ], [ %65, %78 ]
  %.025.i = phi i32 [ %.07995, %43 ], [ %50, %78 ]
  %.0.i = phi i32 [ %45, %43 ], [ %64, %78 ]
  tail call void @lua_seti(ptr noundef %0, i32 noundef 1, i64 noundef %.lcssa.sink) #3
  tail call void @lua_seti(ptr noundef %0, i32 noundef 1, i64 noundef %.lcssa104.sink) #3
  br label %49

49:                                               ; preds = %63, %48
  %.126.i = phi i32 [ %.025.i, %48 ], [ %50, %63 ]
  %50 = add i32 %.126.i, 1
  %51 = zext i32 %50 to i64
  %52 = tail call i32 @lua_geti(ptr noundef %0, i32 noundef 1, i64 noundef %51) #3
  %53 = tail call i32 @lua_type(ptr noundef %0, i32 noundef 2) #3
  %54 = icmp eq i32 %53, 0
  br i1 %54, label %55, label %57

55:                                               ; preds = %49
  %56 = tail call i32 @lua_compare(ptr noundef %0, i32 noundef -1, i32 noundef -2, i32 noundef 1) #3
  br label %sort_comp.exit.i

57:                                               ; preds = %49
  tail call void @lua_pushvalue(ptr noundef %0, i32 noundef 2) #3
  tail call void @lua_pushvalue(ptr noundef %0, i32 noundef -2) #3
  tail call void @lua_pushvalue(ptr noundef %0, i32 noundef -4) #3
  tail call void @lua_callk(ptr noundef %0, i32 noundef 2, i32 noundef 1, i64 noundef 0, ptr noundef null) #3
  %58 = tail call i32 @lua_toboolean(ptr noundef %0, i32 noundef -1) #3
  tail call void @lua_settop(ptr noundef %0, i32 noundef -2) #3
  br label %sort_comp.exit.i

sort_comp.exit.i:                                 ; preds = %57, %55
  %.0.i.i = phi i32 [ %56, %55 ], [ %58, %57 ]
  %.not.i = icmp eq i32 %.0.i.i, 0
  br i1 %.not.i, label %.preheader.i, label %59

59:                                               ; preds = %sort_comp.exit.i
  %60 = icmp eq i32 %50, %45
  br i1 %60, label %61, label %63, !prof !4

61:                                               ; preds = %59
  %62 = tail call i32 (ptr, ptr, ...) @luaL_error(ptr noundef %0, ptr noundef nonnull @.str.21) #3
  br label %63

63:                                               ; preds = %61, %59
  tail call void @lua_settop(ptr noundef %0, i32 noundef -2) #3
  br label %49

.preheader.i:                                     ; preds = %sort_comp.exit.i, %77
  %.1.i = phi i32 [ %64, %77 ], [ %.0.i, %sort_comp.exit.i ]
  %64 = add i32 %.1.i, -1
  %65 = zext i32 %64 to i64
  %66 = tail call i32 @lua_geti(ptr noundef %0, i32 noundef 1, i64 noundef %65) #3
  %67 = tail call i32 @lua_type(ptr noundef %0, i32 noundef 2) #3
  %68 = icmp eq i32 %67, 0
  br i1 %68, label %69, label %71

69:                                               ; preds = %.preheader.i
  %70 = tail call i32 @lua_compare(ptr noundef %0, i32 noundef -3, i32 noundef -1, i32 noundef 1) #3
  br label %sort_comp.exit32.i

71:                                               ; preds = %.preheader.i
  tail call void @lua_pushvalue(ptr noundef %0, i32 noundef 2) #3
  tail call void @lua_pushvalue(ptr noundef %0, i32 noundef -4) #3
  tail call void @lua_pushvalue(ptr noundef %0, i32 noundef -3) #3
  tail call void @lua_callk(ptr noundef %0, i32 noundef 2, i32 noundef 1, i64 noundef 0, ptr noundef null) #3
  %72 = tail call i32 @lua_toboolean(ptr noundef %0, i32 noundef -1) #3
  tail call void @lua_settop(ptr noundef %0, i32 noundef -2) #3
  br label %sort_comp.exit32.i

sort_comp.exit32.i:                               ; preds = %71, %69
  %.0.i31.i = phi i32 [ %70, %69 ], [ %72, %71 ]
  %.not30.i = icmp eq i32 %.0.i31.i, 0
  %73 = icmp ult i32 %64, %50
  br i1 %.not30.i, label %78, label %74

74:                                               ; preds = %sort_comp.exit32.i
  br i1 %73, label %75, label %77, !prof !4

75:                                               ; preds = %74
  %76 = tail call i32 (ptr, ptr, ...) @luaL_error(ptr noundef %0, ptr noundef nonnull @.str.21) #3
  br label %77

77:                                               ; preds = %75, %74
  tail call void @lua_settop(ptr noundef %0, i32 noundef -2) #3
  br label %.preheader.i

78:                                               ; preds = %sort_comp.exit32.i
  br i1 %73, label %partition.exit, label %48

partition.exit:                                   ; preds = %78
  tail call void @lua_settop(ptr noundef %0, i32 noundef -2) #3
  tail call void @lua_seti(ptr noundef %0, i32 noundef 1, i64 noundef %46) #3
  tail call void @lua_seti(ptr noundef %0, i32 noundef 1, i64 noundef %51) #3
  %79 = sub i32 %50, %.07995
  %80 = sub i32 %.07696, %50
  %81 = icmp ult i32 %79, %80
  br i1 %81, label %82, label %84

82:                                               ; preds = %partition.exit
  tail call fastcc void @auxsort(ptr noundef %0, i32 noundef %.07995, i32 noundef %.126.i, i32 noundef %.07597)
  %83 = add i32 %.126.i, 2
  br label %86

84:                                               ; preds = %partition.exit
  %85 = add i32 %.126.i, 2
  tail call fastcc void @auxsort(ptr noundef %0, i32 noundef %85, i32 noundef %.07696, i32 noundef %.07597)
  br label %86

86:                                               ; preds = %84, %82
  %.281 = phi i32 [ %83, %82 ], [ %.07995, %84 ]
  %.278 = phi i32 [ %.07696, %82 ], [ %.126.i, %84 ]
  %.073 = phi i32 [ %79, %82 ], [ %80, %84 ]
  %87 = sub i32 %.278, %.281
  %88 = lshr i32 %87, 7
  %89 = icmp ugt i32 %88, %.073
  br i1 %89, label %90, label %92

90:                                               ; preds = %86
  %91 = tail call i32 @luaL_makeseed(ptr noundef %0) #3
  br label %92

92:                                               ; preds = %86, %90
  %.1 = phi i32 [ %91, %90 ], [ %.07597, %86 ]
  %93 = icmp ult i32 %.281, %.278
  br i1 %93, label %.lr.ph, label %.thread

.thread:                                          ; preds = %92, %13, %41, %4
  ret void
}